target datalayout = "e-m:e-p270:32:32-p271:32:32-p272:64:64-i64:64-i128:128-f80:128-n8:16:32:64-S128"
target triple = "x86_64-pc-linux-gnu"

@.str.1454 = private unnamed_addr constant [32 x i8] c"OMA UserPlane Location Protocol\00", align 1
@.str.1455 = private unnamed_addr constant [4 x i8] c"ULP\00", align 1
@.str.1456 = private unnamed_addr constant [4 x i8] c"ulp\00", align 1
@proto_ulp = internal global i32 0, align 4
@ulp_tcp_handle = internal global ptr null, align 8
@.str.1457 = private unnamed_addr constant [8 x i8] c"ulp.pdu\00", align 1
@ulp_pdu_handle = internal global ptr null, align 8
@.str.1458 = private unnamed_addr constant [23 x i8] c"desegment_ulp_messages\00", align 1
@.str.1459 = private unnamed_addr constant [55 x i8] c"Reassemble ULP messages spanning multiple TCP segments\00", align 1
@.str.1460 = private unnamed_addr constant [204 x i8] c"Whether the ULP dissector should reassemble messages spanning multiple TCP segments. To use this option, you must also enable \22Allow subdissectors to reassemble TCP streams\22 in the TCP protocol settings.\00", align 1
@ulp_desegment = internal global i8 1, align 1

; Function Attrs: null_pointer_is_valid sspstrong uwtable
define hidden void @proto_register_ulp() #0 {
  %1 = alloca ptr, align 8
  call void @llvm.lifetime.start.p0(i64 8, ptr %1) #6
  %2 = call i32 @proto_register_protocol(ptr noundef @.str.1454, ptr noundef @.str.1455, ptr noundef @.str.1456)
  store i32 %2, ptr @proto_ulp, align 4
  %3 = load i32, ptr @proto_ulp, align 4
  %4 = call ptr @register_dissector(ptr noundef @.str.1456, ptr noundef @dissect_ulp_tcp, i32 noundef %3)
  store ptr %4, ptr @ulp_tcp_handle, align 8
  %5 = load i32, ptr @proto_ulp, align 4
  %6 = call ptr @register_dissector(ptr noundef @.str.1457, ptr noundef @dissect_ULP_PDU_PDU, i32 noundef %5)
  store ptr %6, ptr @ulp_pdu_handle, align 8
  %7 = load i32, ptr @proto_ulp, align 4
  call void @proto_register_field_array(i32 noundef %7, ptr noundef @proto_register_ulp.hf, i32 noundef 693)
  call void @proto_register_subtree_array(ptr noundef @proto_register_ulp.ett, i32 noundef 233)
  %8 = load i32, ptr @proto_ulp, align 4
  %9 = call ptr @prefs_register_protocol(i32 noundef %8, ptr noundef null)
  store ptr %9, ptr %1, align 8
  %10 = load ptr, ptr %1, align 8
  call void @prefs_register_bool_preference(ptr noundef %10, ptr noundef @.str.1458, ptr noundef @.str.1459, ptr noundef @.str.1460, ptr noundef @ulp_desegment)
  call void @llvm.lifetime.end.p0(i64 8, ptr %1) #6
  ret void
}