; Function Attrs: null_pointer_is_valid sspstrong uwtable
define hidden void @proto_register_ulp() local_unnamed_addr #0 {
  %1 = tail call i32 @proto_register_protocol(ptr noundef nonnull @.str.1454, ptr noundef nonnull @.str.1455, ptr noundef nonnull @.str.1456)
  store i32 %1, ptr @proto_ulp, align 4
  %2 = tail call ptr @register_dissector(ptr noundef nonnull @.str.1456, ptr noundef nonnull @dissect_ulp_tcp, i32 noundef %1)
  store ptr %2, ptr @ulp_tcp_handle, align 8
  %3 = load i32, ptr @proto_ulp, align 4
  %4 = tail call ptr @register_dissector(ptr noundef nonnull @.str.1457, ptr noundef nonnull @dissect_ULP_PDU_PDU, i32 noundef %3)
  store ptr %4, ptr @ulp_pdu_handle, align 8
  %5 = load i32, ptr @proto_ulp, align 4
  tail call void @proto_register_field_array(i32 noundef %5, ptr noundef nonnull @proto_register_ulp.hf, i32 noundef 693)
  tail call void @proto_register_subtree_array(ptr noundef nonnull @proto_register_ulp.ett, i32 noundef 233)
  %6 = load i32, ptr @proto_ulp, align 4
  %7 = tail call ptr @prefs_register_protocol(i32 noundef %6, ptr noundef null)
  tail call void @prefs_register_bool_preference(ptr noundef %7, ptr noundef nonnull @.str.1458, ptr noundef nonnull @.str.1459, ptr noundef nonnull @.str.1460, ptr noundef nonnull @ulp_desegment)
  ret void
}